; Function Attrs: nounwind uwtable
define void @validateControlState(ptr noundef readonly captures(none) %0, i32 noundef %1, ptr noundef %2) local_unnamed_addr #3 {
  %4 = icmp sgt i32 %1, 0
  br i1 %4, label %.lr.ph.preheader, label %._crit_edge

.lr.ph.preheader:                                 ; preds = %3
  %wide.trip.count = zext nneg i32 %1 to i64
  br label %.lr.ph

._crit_edge:                                      ; preds = %QuESTAssert.exit, %3
  ret void

.lr.ph:                                           ; preds = %.lr.ph.preheader, %QuESTAssert.exit
  %indvars.iv = phi i64 [ 0, %.lr.ph.preheader ], [ %indvars.iv.next, %QuESTAssert.exit ]
  %5 = getelementptr inbounds nuw i32, ptr %0, i64 %indvars.iv
  %6 = load i32, ptr %5, align 4, !tbaa !20
  %narrow = icmp ugt i32 %6, 1
  br i1 %narrow, label %7, label %QuESTAssert.exit

7:                                                ; preds = %.lr.ph
  tail call void @invalidQuESTInputError(ptr noundef nonnull @.str.45, ptr noundef %2)
  br label %QuESTAssert.exit

QuESTAssert.exit:                                 ; preds = %.lr.ph, %7
  %indvars.iv.next = add nuw nsw i64 %indvars.iv, 1
  %exitcond.not = icmp eq i64 %indvars.iv.next, %wide.trip.count
  br i1 %exitcond.not, label %._crit_edge, label %.lr.ph
}